target datalayout = "e-m:e-p270:32:32-p271:32:32-p272:64:64-i64:64-i128:128-f80:128-n8:16:32:64-S128"
target triple = "x86_64-pc-linux-gnu"

%struct.gmx_ana_selparam_t = type { ptr, %struct.gmx_ana_selvalue_t, ptr, i32 }
%struct.gmx_ana_selvalue_t = type { i32, i32, %union.anon, i32 }
%union.anon = type { ptr }
%struct.t_methoddata_pos = type { ptr, %struct.gmx_ana_index_t, ptr, i8, ptr, i32 }
%struct.gmx_ana_index_t = type { i32, ptr, i32 }

@.str.1 = private unnamed_addr constant [5 x i8] c"data\00", align 1
@.str.2 = private unnamed_addr constant [131 x i8] c"generated/home/dtcxzyw/WorkSpace/Projects/compilers/llvm-opt-benchmark/bench/gromacs/gromacs/src/gromacs/selection/sm_position.cpp\00", align 1

; Function Attrs: inlinehint mustprogress uwtable
define internal void @_ZL13gmx_snew_implI16t_methoddata_posEvPKcS2_iRPT_m(ptr noundef %0, ptr noundef %1, i32 noundef %2, ptr noundef nonnull align 8 dereferenceable(8) %3, i64 noundef %4) #3 {
  %6 = alloca ptr, align 8
  %7 = alloca ptr, align 8
  %8 = alloca i32, align 4
  %9 = alloca ptr, align 8
  %10 = alloca i64, align 8
  store ptr %0, ptr %6, align 8, !tbaa !43
  store ptr %1, ptr %7, align 8, !tbaa !43
  store i32 %2, ptr %8, align 4, !tbaa !4
  store ptr %3, ptr %9, align 8, !tbaa !44
  store i64 %4, ptr %10, align 8, !tbaa !46
  %11 = load ptr, ptr %6, align 8, !tbaa !43
  %12 = load ptr, ptr %7, align 8, !tbaa !43
  %13 = load i32, ptr %8, align 4, !tbaa !4
  %14 = load i64, ptr %10, align 8, !tbaa !46
  %15 = call noundef ptr @_Z11save_callocPKcS0_imm(ptr noundef %11, ptr noundef %12, i32 noundef %13, i64 noundef %14, i64 noundef 64)
  %16 = load ptr, ptr %9, align 8, !tbaa !44
  store ptr %15, ptr %16, align 8, !tbaa !11
  ret void
}

; Function Attrs: mustprogress uwtable
define internal noundef ptr @_ZL13init_data_posiP18gmx_ana_selparam_t(i32 noundef %0, ptr noundef %1) #0 {
  %3 = alloca i32, align 4
  %4 = alloca ptr, align 8
  %5 = alloca ptr, align 8
  store i32 %0, ptr %3, align 4, !tbaa !4
  store ptr %1, ptr %4, align 8, !tbaa !8
  call void @llvm.lifetime.start.p0(i64 8, ptr %5) #6
  call void @_ZL13gmx_snew_implI16t_methoddata_posEvPKcS2_iRPT_m(ptr noundef @.str.1, ptr noundef @.str.2, i32 noundef 210, ptr noundef nonnull align 8 dereferenceable(8) %5, i64 noundef 1)
  %6 = load ptr, ptr %5, align 8, !tbaa !11
  %7 = getelementptr inbounds nuw %struct.t_methoddata_pos, ptr %6, i32 0, i32 1
  %8 = load ptr, ptr %4, align 8, !tbaa !8
  %9 = getelementptr inbounds %struct.gmx_ana_selparam_t, ptr %8, i64 0
  %10 = getelementptr inbounds nuw %struct.gmx_ana_selparam_t, ptr %9, i32 0, i32 1
  %11 = getelementptr inbounds nuw %struct.gmx_ana_selvalue_t, ptr %10, i32 0, i32 2
  store ptr %7, ptr %11, align 8, !tbaa !12
  %12 = load i32, ptr %3, align 4, !tbaa !4
  %13 = icmp sgt i32 %12, 1
  br i1 %13, label %14, label %21

14:                                               ; preds = %2
  %15 = load ptr, ptr %5, align 8, !tbaa !11
  %16 = getelementptr inbounds nuw %struct.t_methoddata_pos, ptr %15, i32 0, i32 3
  %17 = load ptr, ptr %4, align 8, !tbaa !8
  %18 = getelementptr inbounds %struct.gmx_ana_selparam_t, ptr %17, i64 1
  %19 = getelementptr inbounds nuw %struct.gmx_ana_selparam_t, ptr %18, i32 0, i32 1
  %20 = getelementptr inbounds nuw %struct.gmx_ana_selvalue_t, ptr %19, i32 0, i32 2
  store ptr %16, ptr %20, align 8, !tbaa !12
  br label %21

21:                                               ; preds = %14, %2
  %22 = load ptr, ptr %5, align 8, !tbaa !11
  %23 = getelementptr inbounds nuw %struct.t_methoddata_pos, ptr %22, i32 0, i32 2
  store ptr null, ptr %23, align 8, !tbaa !13
  %24 = load ptr, ptr %5, align 8, !tbaa !11
  %25 = getelementptr inbounds nuw %struct.t_methoddata_pos, ptr %24, i32 0, i32 3
  store i8 0, ptr %25, align 8, !tbaa !21
  %26 = load ptr, ptr %5, align 8, !tbaa !11
  %27 = getelementptr inbounds nuw %struct.t_methoddata_pos, ptr %26, i32 0, i32 4
  store ptr null, ptr %27, align 8, !tbaa !22
  %28 = load ptr, ptr %5, align 8, !tbaa !11
  %29 = getelementptr inbounds nuw %struct.t_methoddata_pos, ptr %28, i32 0, i32 5
  store i32 -1, ptr %29, align 8, !tbaa !23
  %30 = load ptr, ptr %5, align 8, !tbaa !11
  call void @llvm.lifetime.end.p0(i64 8, ptr %5) #6
  ret ptr %30
}