; Function Attrs: mustprogress uwtable
define internal noundef ptr @_ZL13init_data_posiP18gmx_ana_selparam_t(i32 noundef %0, ptr noundef writeonly captures(none) initializes((16, 24)) %1) #0 {
  %3 = tail call noundef ptr @_Z11save_callocPKcS0_imm(ptr noundef nonnull @.str.1, ptr noundef nonnull @.str.2, i32 noundef 210, i64 noundef 1, i64 noundef 64)
  %4 = getelementptr inbounds nuw i8, ptr %3, i64 8
  %5 = getelementptr inbounds nuw i8, ptr %1, i64 16
  store ptr %4, ptr %5, align 8, !tbaa !4
  %6 = icmp sgt i32 %0, 1
  br i1 %6, label %7, label %10

7:                                                ; preds = %2
  %8 = getelementptr inbounds nuw i8, ptr %3, i64 40
  %9 = getelementptr inbounds nuw i8, ptr %1, i64 64
  store ptr %8, ptr %9, align 8, !tbaa !4
  br label %10

10:                                               ; preds = %7, %2
  %11 = getelementptr inbounds nuw i8, ptr %3, i64 32
  store ptr null, ptr %11, align 8, !tbaa !7
  %12 = getelementptr inbounds nuw i8, ptr %3, i64 40
  store i8 0, ptr %12, align 8, !tbaa !17
  %13 = getelementptr inbounds nuw i8, ptr %3, i64 48
  store ptr null, ptr %13, align 8, !tbaa !18
  %14 = getelementptr inbounds nuw i8, ptr %3, i64 56
  store i32 -1, ptr %14, align 8, !tbaa !19
  ret ptr %3
}